target datalayout = "e-m:e-p270:32:32-p271:32:32-p272:64:64-i64:64-i128:128-f80:128-n8:16:32:64-S128"
target triple = "x86_64-pc-linux-gnu"

%struct.hb_font_funcs_t = type { %struct.hb_object_header_t, ptr, ptr, %"union.hb_font_funcs_t::get_t" }
%struct.hb_object_header_t = type { %struct.hb_reference_count_t, %struct.hb_atomic_int_t, %struct.hb_atomic_ptr_t }
%struct.hb_reference_count_t = type { %struct.hb_atomic_int_t }
%struct.hb_atomic_int_t = type { i32 }
%struct.hb_atomic_ptr_t = type { ptr }
%"union.hb_font_funcs_t::get_t" = type { %"struct.hb_font_funcs_t::get_t::get_funcs_t" }
%"struct.hb_font_funcs_t::get_t::get_funcs_t" = type { ptr, ptr, ptr, ptr, ptr, ptr, ptr, ptr, ptr, ptr, ptr, ptr, ptr, ptr, ptr, ptr, ptr, ptr, ptr }
%struct.hb_atomic_ptr_t.1 = type { ptr }
%struct.hb_atomic_ptr_t.5 = type { ptr }
%struct.hb_font_t = type { %struct.hb_object_header_t, i32, i32, ptr, ptr, i32, i32, float, float, i8, i32, i32, float, float, float, float, i64, i64, i32, i32, float, i32, i32, ptr, ptr, ptr, ptr, ptr, %struct.hb_shaper_object_dataset_t }
%struct.hb_shaper_object_dataset_t = type { ptr, %struct.hb_shaper_lazy_loader_t, %struct.hb_shaper_lazy_loader_t.2 }
%struct.hb_shaper_lazy_loader_t = type { %struct.hb_lazy_loader_t }
%struct.hb_lazy_loader_t = type { %struct.hb_atomic_ptr_t.1 }
%struct.hb_shaper_lazy_loader_t.2 = type { %struct.hb_lazy_loader_t.3 }
%struct.hb_lazy_loader_t.3 = type { %struct.hb_atomic_ptr_t.5 }
%struct.anon.0 = type { ptr, ptr, ptr, ptr, ptr, ptr, ptr, ptr, ptr, ptr, ptr, ptr, ptr, ptr, ptr, ptr, ptr, ptr, ptr }

; Function Attrs: mustprogress uwtable
define linkonce_odr hidden void @_ZN9hb_font_t20get_glyph_v_advancesEjPKjjPij(ptr noundef nonnull align 8 dereferenceable(192) %0, i32 noundef %1, ptr noundef %2, i32 noundef %3, ptr noundef %4, i32 noundef %5) #0 comdat align 2 {
  %7 = alloca ptr, align 8
  %8 = alloca i32, align 4
  %9 = alloca ptr, align 8
  %10 = alloca i32, align 4
  %11 = alloca ptr, align 8
  %12 = alloca i32, align 4
  store ptr %0, ptr %7, align 8
  store i32 %1, ptr %8, align 4
  store ptr %2, ptr %9, align 8
  store i32 %3, ptr %10, align 4
  store ptr %4, ptr %11, align 8
  store i32 %5, ptr %12, align 4
  %13 = load ptr, ptr %7, align 8
  %14 = getelementptr inbounds %struct.hb_font_t, ptr %13, i32 0, i32 25
  %15 = load ptr, ptr %14, align 8
  %16 = getelementptr inbounds %struct.hb_font_funcs_t, ptr %15, i32 0, i32 3
  %17 = getelementptr inbounds %"struct.hb_font_funcs_t::get_t::get_funcs_t", ptr %16, i32 0, i32 8
  %18 = load ptr, ptr %17, align 8
  %19 = getelementptr inbounds %struct.hb_font_t, ptr %13, i32 0, i32 26
  %20 = load ptr, ptr %19, align 8
  %21 = load i32, ptr %8, align 4
  %22 = load ptr, ptr %9, align 8
  %23 = load i32, ptr %10, align 4
  %24 = load ptr, ptr %11, align 8
  %25 = load i32, ptr %12, align 4
  %26 = getelementptr inbounds %struct.hb_font_t, ptr %13, i32 0, i32 25
  %27 = load ptr, ptr %26, align 8
  %28 = getelementptr inbounds %struct.hb_font_funcs_t, ptr %27, i32 0, i32 1
  %29 = load ptr, ptr %28, align 8
  %30 = icmp ne ptr %29, null
  br i1 %30, label %32, label %31

31:                                               ; preds = %6
  br label %39

32:                                               ; preds = %6
  %33 = getelementptr inbounds %struct.hb_font_t, ptr %13, i32 0, i32 25
  %34 = load ptr, ptr %33, align 8
  %35 = getelementptr inbounds %struct.hb_font_funcs_t, ptr %34, i32 0, i32 1
  %36 = load ptr, ptr %35, align 8
  %37 = getelementptr inbounds %struct.anon.0, ptr %36, i32 0, i32 8
  %38 = load ptr, ptr %37, align 8
  br label %39

39:                                               ; preds = %32, %31
  %40 = phi ptr [ null, %31 ], [ %38, %32 ]
  call void %18(ptr noundef %13, ptr noundef %20, i32 noundef %21, ptr noundef %22, i32 noundef %23, ptr noundef %24, i32 noundef %25, ptr noundef %40)
  ret void
}

; Function Attrs: mustprogress uwtable
define linkonce_odr hidden void @_ZN9hb_font_t20get_glyph_h_advancesEjPKjjPij(ptr noundef nonnull align 8 dereferenceable(192) %0, i32 noundef %1, ptr noundef %2, i32 noundef %3, ptr noundef %4, i32 noundef %5) #0 comdat align 2 {
  %7 = alloca ptr, align 8
  %8 = alloca i32, align 4
  %9 = alloca ptr, align 8
  %10 = alloca i32, align 4
  %11 = alloca ptr, align 8
  %12 = alloca i32, align 4
  store ptr %0, ptr %7, align 8
  store i32 %1, ptr %8, align 4
  store ptr %2, ptr %9, align 8
  store i32 %3, ptr %10, align 4
  store ptr %4, ptr %11, align 8
  store i32 %5, ptr %12, align 4
  %13 = load ptr, ptr %7, align 8
  %14 = getelementptr inbounds %struct.hb_font_t, ptr %13, i32 0, i32 25
  %15 = load ptr, ptr %14, align 8
  %16 = getelementptr inbounds %struct.hb_font_funcs_t, ptr %15, i32 0, i32 3
  %17 = getelementptr inbounds %"struct.hb_font_funcs_t::get_t::get_funcs_t", ptr %16, i32 0, i32 7
  %18 = load ptr, ptr %17, align 8
  %19 = getelementptr inbounds %struct.hb_font_t, ptr %13, i32 0, i32 26
  %20 = load ptr, ptr %19, align 8
  %21 = load i32, ptr %8, align 4
  %22 = load ptr, ptr %9, align 8
  %23 = load i32, ptr %10, align 4
  %24 = load ptr, ptr %11, align 8
  %25 = load i32, ptr %12, align 4
  %26 = getelementptr inbounds %struct.hb_font_t, ptr %13, i32 0, i32 25
  %27 = load ptr, ptr %26, align 8
  %28 = getelementptr inbounds %struct.hb_font_funcs_t, ptr %27, i32 0, i32 1
  %29 = load ptr, ptr %28, align 8
  %30 = icmp ne ptr %29, null
  br i1 %30, label %32, label %31

31:                                               ; preds = %6
  br label %39

32:                                               ; preds = %6
  %33 = getelementptr inbounds %struct.hb_font_t, ptr %13, i32 0, i32 25
  %34 = load ptr, ptr %33, align 8
  %35 = getelementptr inbounds %struct.hb_font_funcs_t, ptr %34, i32 0, i32 1
  %36 = load ptr, ptr %35, align 8
  %37 = getelementptr inbounds %struct.anon.0, ptr %36, i32 0, i32 7
  %38 = load ptr, ptr %37, align 8
  br label %39

39:                                               ; preds = %32, %31
  %40 = phi ptr [ null, %31 ], [ %38, %32 ]
  call void %18(ptr noundef %13, ptr noundef %20, i32 noundef %21, ptr noundef %22, i32 noundef %23, ptr noundef %24, i32 noundef %25, ptr noundef %40)
  ret void
}

; Function Attrs: mustprogress uwtable
define linkonce_odr hidden void @_ZN9hb_font_t32get_glyph_advances_for_directionE14hb_direction_tjPKjjPij(ptr noundef nonnull align 8 dereferenceable(192) %0, i32 noundef %1, i32 noundef %2, ptr noundef %3, i32 noundef %4, ptr noundef %5, i32 noundef %6) #0 comdat align 2 {
  %8 = alloca ptr, align 8
  %9 = alloca i32, align 4
  %10 = alloca i32, align 4
  %11 = alloca ptr, align 8
  %12 = alloca i32, align 4
  %13 = alloca ptr, align 8
  %14 = alloca i32, align 4
  store ptr %0, ptr %8, align 8
  store i32 %1, ptr %9, align 4
  store i32 %2, ptr %10, align 4
  store ptr %3, ptr %11, align 8
  store i32 %4, ptr %12, align 4
  store ptr %5, ptr %13, align 8
  store i32 %6, ptr %14, align 4
  %15 = load ptr, ptr %8, align 8
  %16 = load i32, ptr %9, align 4
  %17 = and i32 %16, -2
  %18 = icmp eq i32 %17, 4
  br i1 %18, label %19, label %25

19:                                               ; preds = %7
  %20 = load i32, ptr %10, align 4
  %21 = load ptr, ptr %11, align 8
  %22 = load i32, ptr %12, align 4
  %23 = load ptr, ptr %13, align 8
  %24 = load i32, ptr %14, align 4
  call void @_ZN9hb_font_t20get_glyph_h_advancesEjPKjjPij(ptr noundef nonnull align 8 dereferenceable(192) %15, i32 noundef %20, ptr noundef %21, i32 noundef %22, ptr noundef %23, i32 noundef %24)
  br label %31

25:                                               ; preds = %7
  %26 = load i32, ptr %10, align 4
  %27 = load ptr, ptr %11, align 8
  %28 = load i32, ptr %12, align 4
  %29 = load ptr, ptr %13, align 8
  %30 = load i32, ptr %14, align 4
  call void @_ZN9hb_font_t20get_glyph_v_advancesEjPKjjPij(ptr noundef nonnull align 8 dereferenceable(192) %15, i32 noundef %26, ptr noundef %27, i32 noundef %28, ptr noundef %29, i32 noundef %30)
  br label %31

31:                                               ; preds = %25, %19
  ret void
}

; Function Attrs: mustprogress uwtable
define hidden void @hb_font_get_glyph_advances_for_direction(ptr noundef %0, i32 noundef %1, i32 noundef %2, ptr noundef %3, i32 noundef %4, ptr noundef %5, i32 noundef %6) #0 {
  %8 = alloca ptr, align 8
  %9 = alloca i32, align 4
  %10 = alloca i32, align 4
  %11 = alloca ptr, align 8
  %12 = alloca i32, align 4
  %13 = alloca ptr, align 8
  %14 = alloca i32, align 4
  store ptr %0, ptr %8, align 8
  store i32 %1, ptr %9, align 4
  store i32 %2, ptr %10, align 4
  store ptr %3, ptr %11, align 8
  store i32 %4, ptr %12, align 4
  store ptr %5, ptr %13, align 8
  store i32 %6, ptr %14, align 4
  %15 = load ptr, ptr %8, align 8
  %16 = load i32, ptr %9, align 4
  %17 = load i32, ptr %10, align 4
  %18 = load ptr, ptr %11, align 8
  %19 = load i32, ptr %12, align 4
  %20 = load ptr, ptr %13, align 8
  %21 = load i32, ptr %14, align 4
  call void @_ZN9hb_font_t32get_glyph_advances_for_directionE14hb_direction_tjPKjjPij(ptr noundef nonnull align 8 dereferenceable(192) %15, i32 noundef %16, i32 noundef %17, ptr noundef %18, i32 noundef %19, ptr noundef %20, i32 noundef %21)
  ret void
}