; Function Attrs: mustprogress uwtable
define hidden void @hb_font_get_glyph_advances_for_direction(ptr noundef %0, i32 noundef %1, i32 noundef %2, ptr noundef %3, i32 noundef %4, ptr noundef %5, i32 noundef %6) local_unnamed_addr #1 {
  %8 = and i32 %1, -2
  %9 = icmp eq i32 %8, 4
  %10 = getelementptr inbounds i8, ptr %0, i64 144
  %11 = load ptr, ptr %10, align 8
  %12 = getelementptr inbounds i8, ptr %0, i64 152
  %13 = load ptr, ptr %12, align 8
  %14 = getelementptr inbounds i8, ptr %11, i64 16
  %15 = load ptr, ptr %14, align 8
  %.not.i.i = icmp eq ptr %15, null
  br i1 %9, label %16, label %23

16:                                               ; preds = %7
  %17 = getelementptr inbounds i8, ptr %11, i64 88
  %18 = load ptr, ptr %17, align 8
  br i1 %.not.i.i, label %_ZN9hb_font_t20get_glyph_h_advancesEjPKjjPij.exit.i, label %19

19:                                               ; preds = %16
  %20 = getelementptr inbounds i8, ptr %15, i64 56
  %21 = load ptr, ptr %20, align 8
  br label %_ZN9hb_font_t20get_glyph_h_advancesEjPKjjPij.exit.i

_ZN9hb_font_t20get_glyph_h_advancesEjPKjjPij.exit.i: ; preds = %19, %16
  %22 = phi ptr [ %21, %19 ], [ null, %16 ]
  tail call void %18(ptr noundef nonnull %0, ptr noundef %13, i32 noundef %2, ptr noundef %3, i32 noundef %4, ptr noundef %5, i32 noundef %6, ptr noundef %22)
  br label %_ZN9hb_font_t32get_glyph_advances_for_directionE14hb_direction_tjPKjjPij.exit

23:                                               ; preds = %7
  %24 = getelementptr inbounds i8, ptr %11, i64 96
  %25 = load ptr, ptr %24, align 8
  br i1 %.not.i.i, label %_ZN9hb_font_t20get_glyph_v_advancesEjPKjjPij.exit.i, label %26

26:                                               ; preds = %23
  %27 = getelementptr inbounds i8, ptr %15, i64 64
  %28 = load ptr, ptr %27, align 8
  br label %_ZN9hb_font_t20get_glyph_v_advancesEjPKjjPij.exit.i

_ZN9hb_font_t20get_glyph_v_advancesEjPKjjPij.exit.i: ; preds = %26, %23
  %29 = phi ptr [ %28, %26 ], [ null, %23 ]
  tail call void %25(ptr noundef nonnull %0, ptr noundef %13, i32 noundef %2, ptr noundef %3, i32 noundef %4, ptr noundef %5, i32 noundef %6, ptr noundef %29)
  br label %_ZN9hb_font_t32get_glyph_advances_for_directionE14hb_direction_tjPKjjPij.exit

_ZN9hb_font_t32get_glyph_advances_for_directionE14hb_direction_tjPKjjPij.exit: ; preds = %_ZN9hb_font_t20get_glyph_h_advancesEjPKjjPij.exit.i, %_ZN9hb_font_t20get_glyph_v_advancesEjPKjjPij.exit.i
  ret void
}